target datalayout = "e-m:e-p270:32:32-p271:32:32-p272:64:64-i64:64-i128:128-f80:128-n8:16:32:64-S128"
target triple = "x86_64-pc-linux-gnu"

%struct._zend_array = type { %struct._zend_refcounted_h, %union.anon.17, i32, %union.anon.19, i32, i32, i32, i32, i64, ptr }
%struct._zend_refcounted_h = type { i32, %union.anon.16 }
%union.anon.16 = type { i32 }
%union.anon.17 = type { i32 }
%union.anon.19 = type { ptr }
%struct._zend_stack = type { i32, i32, i32, ptr }
%struct._zend_string = type { %struct._zend_refcounted_h, i64, i64, [1 x i8] }
%struct._zend_executor_globals = type { %struct._zval_struct, %struct._zval_struct, [32 x ptr], ptr, ptr, %struct._zend_array, %struct._zend_array, ptr, i32, i32, ptr, ptr, ptr, ptr, ptr, ptr, i64, ptr, ptr, i32, i32, i64, i32, i32, i32, i8, i8, %struct.zend_atomic_bool_s, %struct.zend_atomic_bool_s, ptr, i64, ptr, ptr, %struct._zend_array, %struct._zend_array, i32, i8, %struct._zval_struct, %struct._zval_struct, %struct._zend_stack, %struct._zend_stack, %struct._zend_stack, ptr, i32, i32, i64, ptr, ptr, ptr, %struct._zend_objects_store, ptr, ptr, ptr, [3 x %struct._zend_op], ptr, i8, i8, i64, i32, i32, ptr, [16 x %struct._HashTableIterator], ptr, %union._zend_function, %struct._zend_op, %struct._zend_array, i64, %struct.zend_get_gc_buffer, ptr, ptr, ptr, i64, i8, i32, ptr, ptr, i64, %struct._zend_call_stack, i64, i64, [6 x ptr] }
%struct.zend_atomic_bool_s = type { i8 }
%struct._zval_struct = type { %union._zend_value, %union.anon.21, %union.anon.24 }
%union._zend_value = type { i64 }
%union.anon.21 = type { i32 }
%union.anon.24 = type { i32 }
%struct._zend_objects_store = type { ptr, i32, i32, i32 }
%struct._HashTableIterator = type { ptr, i32, i32 }
%union._zend_function = type { %struct._zend_op_array }
%struct._zend_op_array = type { i8, [3 x i8], i32, ptr, ptr, ptr, i32, i32, ptr, ptr, ptr, ptr, i32, i32, i32, i32, ptr, ptr, ptr, ptr, ptr, i32, i32, ptr, ptr, ptr, i32, i32, i32, i32, ptr, ptr, [6 x ptr] }
%struct._zend_op = type { ptr, %union._znode_op, %union._znode_op, %union._znode_op, i32, i32, i8, i8, i8, i8 }
%union._znode_op = type { i32 }
%struct.zend_get_gc_buffer = type { ptr, ptr, ptr }
%struct._zend_call_stack = type { ptr, i64 }

@executor_globals = external global %struct._zend_executor_globals, align 8
@zend_empty_string = external global ptr, align 8
@zend_one_char_string = external global [256 x ptr], align 16
@.str.137 = private unnamed_addr constant [32 x i8] c"Uninitialized string offset %ld\00", align 1

; Function Attrs: nounwind uwtable
define internal ptr @zend_jit_fetch_dim_str_r_helper(ptr noundef %0, ptr noundef %1) #0 {
  %3 = alloca ptr, align 8
  %4 = alloca ptr, align 8
  %5 = alloca i64, align 8
  %6 = alloca i64, align 8
  %7 = alloca ptr, align 8
  %8 = alloca ptr, align 8
  %9 = alloca i64, align 8
  %10 = alloca i64, align 8
  %11 = alloca ptr, align 8
  %12 = alloca ptr, align 8
  %13 = alloca i32, align 4
  %14 = alloca i32, align 4
  %15 = alloca ptr, align 8
  %16 = alloca ptr, align 8
  %17 = alloca ptr, align 8
  %18 = alloca ptr, align 8
  %19 = alloca ptr, align 8
  %20 = alloca i64, align 8
  %21 = alloca ptr, align 8
  store ptr %0, ptr %18, align 8
  store ptr %1, ptr %19, align 8
  %22 = load ptr, ptr %19, align 8
  store ptr %22, ptr %16, align 8
  %23 = load ptr, ptr %16, align 8
  %24 = getelementptr inbounds %struct._zval_struct, ptr %23, i32 0, i32 1
  %25 = load i8, ptr %24, align 8
  %26 = zext i8 %25 to i32
  %27 = icmp ne i32 %26, 4
  %28 = xor i1 %27, true
  %29 = xor i1 %28, true
  %30 = zext i1 %29 to i32
  %31 = sext i32 %30 to i64
  %32 = icmp ne i64 %31, 0
  br i1 %32, label %33, label %121

33:                                               ; preds = %2
  %34 = load ptr, ptr %18, align 8
  %35 = getelementptr inbounds %struct._zend_string, ptr %34, i32 0, i32 0
  %36 = getelementptr inbounds %struct._zend_refcounted_h, ptr %35, i32 0, i32 1
  %37 = load i32, ptr %36, align 4
  store i32 %37, ptr %13, align 4
  %38 = load i32, ptr %13, align 4
  %39 = and i32 %38, 1008
  %40 = and i32 %39, 64
  %41 = icmp ne i32 %40, 0
  br i1 %41, label %48, label %42

42:                                               ; preds = %33
  %43 = load ptr, ptr %18, align 8
  %44 = getelementptr inbounds %struct._zend_string, ptr %43, i32 0, i32 0
  store ptr %44, ptr %15, align 8
  %45 = load ptr, ptr %15, align 8
  %46 = load i32, ptr %45, align 4
  %47 = add i32 %46, 1
  store i32 %47, ptr %45, align 4
  br label %48

48:                                               ; preds = %42, %33
  %49 = load ptr, ptr %19, align 8
  %50 = call i64 @zend_check_string_offset(ptr noundef %49, i32 noundef 0)
  store i64 %50, ptr %20, align 8
  %51 = load ptr, ptr %18, align 8
  %52 = getelementptr inbounds %struct._zend_string, ptr %51, i32 0, i32 0
  %53 = getelementptr inbounds %struct._zend_refcounted_h, ptr %52, i32 0, i32 1
  %54 = load i32, ptr %53, align 4
  store i32 %54, ptr %14, align 4
  %55 = load i32, ptr %14, align 4
  %56 = and i32 %55, 1008
  %57 = and i32 %56, 64
  %58 = icmp ne i32 %57, 0
  br i1 %58, label %120, label %59

59:                                               ; preds = %48
  %60 = load ptr, ptr %18, align 8
  %61 = getelementptr inbounds %struct._zend_string, ptr %60, i32 0, i32 0
  store ptr %61, ptr %12, align 8
  %62 = load ptr, ptr %12, align 8
  %63 = load i32, ptr %62, align 4
  %64 = icmp ugt i32 %63, 0
  call void @llvm.assume(i1 %64)
  %65 = load ptr, ptr %12, align 8
  %66 = load i32, ptr %65, align 4
  %67 = add i32 %66, -1
  store i32 %67, ptr %65, align 4
  %68 = icmp eq i32 %67, 0
  %69 = xor i1 %68, true
  %70 = xor i1 %69, true
  %71 = zext i1 %70 to i32
  %72 = sext i32 %71 to i64
  %73 = icmp ne i64 %72, 0
  br i1 %73, label %74, label %120

74:                                               ; preds = %59
  %75 = load ptr, ptr %18, align 8
  %76 = load i64, ptr %20, align 8
  store ptr %75, ptr %4, align 8
  store i64 %76, ptr %5, align 8
  %77 = load i64, ptr %5, align 8
  %78 = load ptr, ptr %4, align 8
  %79 = getelementptr inbounds %struct._zend_string, ptr %78, i32 0, i32 2
  %80 = load i64, ptr %79, align 8
  %81 = icmp uge i64 %77, %80
  br i1 %81, label %82, label %106

82:                                               ; preds = %74
  %83 = load i64, ptr %5, align 8
  %84 = icmp slt i64 %83, 0
  br i1 %84, label %85, label %103

85:                                               ; preds = %82
  %86 = load ptr, ptr %4, align 8
  %87 = getelementptr inbounds %struct._zend_string, ptr %86, i32 0, i32 2
  %88 = load i64, ptr %87, align 8
  %89 = load i64, ptr %5, align 8
  %90 = add nsw i64 %88, %89
  store i64 %90, ptr %6, align 8
  %91 = load i64, ptr %6, align 8
  %92 = icmp sge i64 %91, 0
  br i1 %92, label %93, label %102

93:                                               ; preds = %85
  %94 = load ptr, ptr %4, align 8
  %95 = getelementptr inbounds %struct._zend_string, ptr %94, i32 0, i32 3
  %96 = load i64, ptr %6, align 8
  %97 = getelementptr inbounds [1 x i8], ptr %95, i64 0, i64 %96
  %98 = load i8, ptr %97, align 1
  %99 = zext i8 %98 to i64
  %100 = getelementptr inbounds [256 x ptr], ptr @zend_one_char_string, i64 0, i64 %99
  %101 = load ptr, ptr %100, align 8
  store ptr %101, ptr %3, align 8
  br label %115

102:                                              ; preds = %85
  br label %103

103:                                              ; preds = %102, %82
  %104 = load i64, ptr %5, align 8
  call void (i32, ptr, ...) @zend_error(i32 noundef 2, ptr noundef @.str.137, i64 noundef %104) #17
  %105 = load ptr, ptr @zend_empty_string, align 8
  store ptr %105, ptr %3, align 8
  br label %115

106:                                              ; preds = %74
  %107 = load ptr, ptr %4, align 8
  %108 = getelementptr inbounds %struct._zend_string, ptr %107, i32 0, i32 3
  %109 = load i64, ptr %5, align 8
  %110 = getelementptr inbounds [1 x i8], ptr %108, i64 0, i64 %109
  %111 = load i8, ptr %110, align 1
  %112 = zext i8 %111 to i64
  %113 = getelementptr inbounds [256 x ptr], ptr @zend_one_char_string, i64 0, i64 %112
  %114 = load ptr, ptr %113, align 8
  store ptr %114, ptr %3, align 8
  br label %115

115:                                              ; preds = %106, %103, %93
  %116 = load ptr, ptr %3, align 8
  store ptr %116, ptr %21, align 8
  %117 = load ptr, ptr %18, align 8
  store ptr %117, ptr %11, align 8
  %118 = load ptr, ptr %11, align 8
  call void @_efree(ptr noundef %118) #17
  %119 = load ptr, ptr %21, align 8
  store ptr %119, ptr %17, align 8
  br label %178

120:                                              ; preds = %59, %48
  br label %125

121:                                              ; preds = %2
  %122 = load ptr, ptr %19, align 8
  %123 = getelementptr inbounds %struct._zval_struct, ptr %122, i32 0, i32 0
  %124 = load i64, ptr %123, align 8
  store i64 %124, ptr %20, align 8
  br label %125

125:                                              ; preds = %121, %120
  %126 = load ptr, ptr getelementptr inbounds (%struct._zend_executor_globals, ptr @executor_globals, i32 0, i32 50), align 8
  %127 = icmp ne ptr %126, null
  %128 = xor i1 %127, true
  %129 = xor i1 %128, true
  %130 = zext i1 %129 to i32
  %131 = sext i32 %130 to i64
  %132 = icmp ne i64 %131, 0
  br i1 %132, label %133, label %135

133:                                              ; preds = %125
  %134 = load ptr, ptr @zend_empty_string, align 8
  store ptr %134, ptr %17, align 8
  br label %178

135:                                              ; preds = %125
  %136 = load ptr, ptr %18, align 8
  %137 = load i64, ptr %20, align 8
  store ptr %136, ptr %8, align 8
  store i64 %137, ptr %9, align 8
  %138 = load i64, ptr %9, align 8
  %139 = load ptr, ptr %8, align 8
  %140 = getelementptr inbounds %struct._zend_string, ptr %139, i32 0, i32 2
  %141 = load i64, ptr %140, align 8
  %142 = icmp uge i64 %138, %141
  br i1 %142, label %143, label %167

143:                                              ; preds = %135
  %144 = load i64, ptr %9, align 8
  %145 = icmp slt i64 %144, 0
  br i1 %145, label %146, label %164

146:                                              ; preds = %143
  %147 = load ptr, ptr %8, align 8
  %148 = getelementptr inbounds %struct._zend_string, ptr %147, i32 0, i32 2
  %149 = load i64, ptr %148, align 8
  %150 = load i64, ptr %9, align 8
  %151 = add nsw i64 %149, %150
  store i64 %151, ptr %10, align 8
  %152 = load i64, ptr %10, align 8
  %153 = icmp sge i64 %152, 0
  br i1 %153, label %154, label %163

154:                                              ; preds = %146
  %155 = load ptr, ptr %8, align 8
  %156 = getelementptr inbounds %struct._zend_string, ptr %155, i32 0, i32 3
  %157 = load i64, ptr %10, align 8
  %158 = getelementptr inbounds [1 x i8], ptr %156, i64 0, i64 %157
  %159 = load i8, ptr %158, align 1
  %160 = zext i8 %159 to i64
  %161 = getelementptr inbounds [256 x ptr], ptr @zend_one_char_string, i64 0, i64 %160
  %162 = load ptr, ptr %161, align 8
  store ptr %162, ptr %7, align 8
  br label %176

163:                                              ; preds = %146
  br label %164

164:                                              ; preds = %163, %143
  %165 = load i64, ptr %9, align 8
  call void (i32, ptr, ...) @zend_error(i32 noundef 2, ptr noundef @.str.137, i64 noundef %165) #17
  %166 = load ptr, ptr @zend_empty_string, align 8
  store ptr %166, ptr %7, align 8
  br label %176

167:                                              ; preds = %135
  %168 = load ptr, ptr %8, align 8
  %169 = getelementptr inbounds %struct._zend_string, ptr %168, i32 0, i32 3
  %170 = load i64, ptr %9, align 8
  %171 = getelementptr inbounds [1 x i8], ptr %169, i64 0, i64 %170
  %172 = load i8, ptr %171, align 1
  %173 = zext i8 %172 to i64
  %174 = getelementptr inbounds [256 x ptr], ptr @zend_one_char_string, i64 0, i64 %173
  %175 = load ptr, ptr %174, align 8
  store ptr %175, ptr %7, align 8
  br label %176

176:                                              ; preds = %167, %164, %154
  %177 = load ptr, ptr %7, align 8
  store ptr %177, ptr %17, align 8
  br label %178

178:                                              ; preds = %176, %133, %115
  %179 = load ptr, ptr %17, align 8
  ret ptr %179
}