; Function Attrs: nounwind uwtable
define internal ptr @zend_jit_fetch_dim_str_r_helper(ptr noundef %0, ptr noundef %1) #0 {
  %3 = getelementptr inbounds i8, ptr %1, i64 8
  %4 = load i8, ptr %3, align 8
  %.not = icmp eq i8 %4, 4
  br i1 %.not, label %43, label %5

5:                                                ; preds = %2
  %6 = getelementptr inbounds i8, ptr %0, i64 4
  %7 = load i32, ptr %6, align 4
  %8 = and i32 %7, 64
  %.not52 = icmp eq i32 %8, 0
  br i1 %.not52, label %9, label %12

9:                                                ; preds = %5
  %10 = load i32, ptr %0, align 4
  %11 = add i32 %10, 1
  store i32 %11, ptr %0, align 4
  br label %12

12:                                               ; preds = %9, %5
  %13 = tail call fastcc i64 @zend_check_string_offset(ptr noundef nonnull %1, i32 noundef 0)
  %14 = load i32, ptr %6, align 4
  %15 = and i32 %14, 64
  %.not53 = icmp eq i32 %15, 0
  br i1 %.not53, label %16, label %45

16:                                               ; preds = %12
  %17 = load i32, ptr %0, align 4
  %18 = icmp ne i32 %17, 0
  tail call void @llvm.assume(i1 %18)
  %19 = add i32 %17, -1
  store i32 %19, ptr %0, align 4
  %20 = icmp eq i32 %19, 0
  br i1 %20, label %21, label %45

21:                                               ; preds = %16
  %22 = getelementptr inbounds i8, ptr %0, i64 16
  %23 = load i64, ptr %22, align 8
  %.not54 = icmp ult i64 %13, %23
  br i1 %.not54, label %36, label %24

24:                                               ; preds = %21
  %25 = icmp slt i64 %13, 0
  br i1 %25, label %26, label %35

26:                                               ; preds = %24
  %27 = add nsw i64 %23, %13
  %28 = icmp sgt i64 %27, -1
  br i1 %28, label %29, label %35

29:                                               ; preds = %26
  %30 = getelementptr inbounds i8, ptr %0, i64 24
  %31 = getelementptr inbounds [1 x i8], ptr %30, i64 0, i64 %27
  %32 = load i8, ptr %31, align 1
  %33 = zext i8 %32 to i64
  %34 = getelementptr inbounds [256 x ptr], ptr @zend_one_char_string, i64 0, i64 %33
  br label %42

35:                                               ; preds = %26, %24
  tail call void (i32, ptr, ...) @zend_error(i32 noundef 2, ptr noundef nonnull @.str.137, i64 noundef %13) #32
  br label %42

36:                                               ; preds = %21
  %37 = getelementptr inbounds i8, ptr %0, i64 24
  %38 = getelementptr inbounds [1 x i8], ptr %37, i64 0, i64 %13
  %39 = load i8, ptr %38, align 1
  %40 = zext i8 %39 to i64
  %41 = getelementptr inbounds [256 x ptr], ptr @zend_one_char_string, i64 0, i64 %40
  br label %42

42:                                               ; preds = %36, %35, %29
  %.0.in = phi ptr [ %34, %29 ], [ @zend_empty_string, %35 ], [ %41, %36 ]
  %.0 = load ptr, ptr %.0.in, align 8
  tail call void @_efree(ptr noundef nonnull %0) #32
  br label %71

43:                                               ; preds = %2
  %44 = load i64, ptr %1, align 8
  br label %45

45:                                               ; preds = %12, %16, %43
  %.044 = phi i64 [ %13, %12 ], [ %13, %16 ], [ %44, %43 ]
  %46 = load ptr, ptr getelementptr inbounds (%struct._zend_executor_globals, ptr @executor_globals, i64 0, i32 50), align 8
  %.not55 = icmp eq ptr %46, null
  br i1 %.not55, label %49, label %47

47:                                               ; preds = %45
  %48 = load ptr, ptr @zend_empty_string, align 8
  br label %71

49:                                               ; preds = %45
  %50 = getelementptr inbounds i8, ptr %0, i64 16
  %51 = load i64, ptr %50, align 8
  %.not56 = icmp ult i64 %.044, %51
  br i1 %.not56, label %64, label %52

52:                                               ; preds = %49
  %53 = icmp slt i64 %.044, 0
  br i1 %53, label %54, label %63

54:                                               ; preds = %52
  %55 = add nsw i64 %51, %.044
  %56 = icmp sgt i64 %55, -1
  br i1 %56, label %57, label %63

57:                                               ; preds = %54
  %58 = getelementptr inbounds i8, ptr %0, i64 24
  %59 = getelementptr inbounds [1 x i8], ptr %58, i64 0, i64 %55
  %60 = load i8, ptr %59, align 1
  %61 = zext i8 %60 to i64
  %62 = getelementptr inbounds [256 x ptr], ptr @zend_one_char_string, i64 0, i64 %61
  br label %70

63:                                               ; preds = %54, %52
  tail call void (i32, ptr, ...) @zend_error(i32 noundef 2, ptr noundef nonnull @.str.137, i64 noundef %.044) #32
  br label %70

64:                                               ; preds = %49
  %65 = getelementptr inbounds i8, ptr %0, i64 24
  %66 = getelementptr inbounds [1 x i8], ptr %65, i64 0, i64 %.044
  %67 = load i8, ptr %66, align 1
  %68 = zext i8 %67 to i64
  %69 = getelementptr inbounds [256 x ptr], ptr @zend_one_char_string, i64 0, i64 %68
  br label %70

70:                                               ; preds = %64, %63, %57
  %.045.in = phi ptr [ %62, %57 ], [ @zend_empty_string, %63 ], [ %69, %64 ]
  %.045 = load ptr, ptr %.045.in, align 8
  br label %71

71:                                               ; preds = %70, %47, %42
  %.046 = phi ptr [ %48, %47 ], [ %.045, %70 ], [ %.0, %42 ]
  ret ptr %.046
}